target datalayout = "e-m:e-p270:32:32-p271:32:32-p272:64:64-i64:64-i128:128-f80:128-n8:16:32:64-S128"
target triple = "x86_64-pc-linux-gnu"

%"class.std::vector.45" = type { %"struct.std::_Vector_base.46" }
%"struct.std::_Vector_base.46" = type { %"struct.std::_Vector_base<std::__cxx11::basic_string<char>, std::allocator<std::__cxx11::basic_string<char>>>::_Vector_impl" }
%"struct.std::_Vector_base<std::__cxx11::basic_string<char>, std::allocator<std::__cxx11::basic_string<char>>>::_Vector_impl" = type { %"struct.std::_Vector_base<std::__cxx11::basic_string<char>, std::allocator<std::__cxx11::basic_string<char>>>::_Vector_impl_data" }
%"struct.std::_Vector_base<std::__cxx11::basic_string<char>, std::allocator<std::__cxx11::basic_string<char>>>::_Vector_impl_data" = type { ptr, ptr, ptr }

@_ZZN32pxrInternal_v0_24__pxrReserved__25ArGetRegisteredURISchemesB5cxx11EvE10uriSchemesB5cxx11 = internal global %"class.std::vector.45" zeroinitializer, align 8
@_ZGVZN32pxrInternal_v0_24__pxrReserved__25ArGetRegisteredURISchemesB5cxx11EvE10uriSchemesB5cxx11 = internal global i64 0, align 8
@__dso_handle = external hidden global i8

; Function Attrs: mustprogress uwtable
define noundef nonnull align 8 dereferenceable(24) ptr @_ZN32pxrInternal_v0_24__pxrReserved__25ArGetRegisteredURISchemesB5cxx11Ev() #0 personality ptr @__gxx_personality_v0 {
  %1 = alloca ptr, align 8
  %2 = alloca i32, align 4
  %3 = load atomic i8, ptr @_ZGVZN32pxrInternal_v0_24__pxrReserved__25ArGetRegisteredURISchemesB5cxx11EvE10uriSchemesB5cxx11 acquire, align 8
  %4 = icmp eq i8 %3, 0
  br i1 %4, label %5, label %13, !prof !4

5:                                                ; preds = %0
  %6 = call i32 @__cxa_guard_acquire(ptr @_ZGVZN32pxrInternal_v0_24__pxrReserved__25ArGetRegisteredURISchemesB5cxx11EvE10uriSchemesB5cxx11) #6
  %7 = icmp ne i32 %6, 0
  br i1 %7, label %8, label %13

8:                                                ; preds = %5
  %9 = invoke noundef nonnull align 8 dereferenceable(320) ptr @_ZN32pxrInternal_v0_24__pxrReserved__12_GLOBAL__N_112_GetResolverEv()
          to label %10 unwind label %14

10:                                               ; preds = %8
  invoke void @_ZNK32pxrInternal_v0_24__pxrReserved__12_GLOBAL__N_120_DispatchingResolver13GetURISchemesB5cxx11Ev(ptr dead_on_unwind writable sret(%"class.std::vector.45") align 8 @_ZZN32pxrInternal_v0_24__pxrReserved__25ArGetRegisteredURISchemesB5cxx11EvE10uriSchemesB5cxx11, ptr noundef nonnull align 8 dereferenceable(320) %9)
          to label %11 unwind label %14

11:                                               ; preds = %10
  %12 = call i32 @__cxa_atexit(ptr @_ZNSt6vectorINSt7__cxx1112basic_stringIcSt11char_traitsIcESaIcEEESaIS5_EED2Ev, ptr @_ZZN32pxrInternal_v0_24__pxrReserved__25ArGetRegisteredURISchemesB5cxx11EvE10uriSchemesB5cxx11, ptr @__dso_handle) #6
  call void @__cxa_guard_release(ptr @_ZGVZN32pxrInternal_v0_24__pxrReserved__25ArGetRegisteredURISchemesB5cxx11EvE10uriSchemesB5cxx11) #6
  br label %13

13:                                               ; preds = %11, %5, %0
  ret ptr @_ZZN32pxrInternal_v0_24__pxrReserved__25ArGetRegisteredURISchemesB5cxx11EvE10uriSchemesB5cxx11

14:                                               ; preds = %10, %8
  %15 = landingpad { ptr, i32 }
          cleanup
  %16 = extractvalue { ptr, i32 } %15, 0
  store ptr %16, ptr %1, align 8
  %17 = extractvalue { ptr, i32 } %15, 1
  store i32 %17, ptr %2, align 4
  call void @__cxa_guard_abort(ptr @_ZGVZN32pxrInternal_v0_24__pxrReserved__25ArGetRegisteredURISchemesB5cxx11EvE10uriSchemesB5cxx11) #6
  br label %18

18:                                               ; preds = %14
  %19 = load ptr, ptr %1, align 8
  %20 = load i32, ptr %2, align 4
  %21 = insertvalue { ptr, i32 } poison, ptr %19, 0
  %22 = insertvalue { ptr, i32 } %21, i32 %20, 1
  resume { ptr, i32 } %22
}