; Function Attrs: mustprogress uwtable
define noundef nonnull align 8 dereferenceable(24) ptr @_ZN32pxrInternal_v0_24__pxrReserved__25ArGetRegisteredURISchemesB5cxx11Ev() local_unnamed_addr #0 personality ptr @__gxx_personality_v0 {
  %1 = load atomic i8, ptr @_ZGVZN32pxrInternal_v0_24__pxrReserved__25ArGetRegisteredURISchemesB5cxx11EvE10uriSchemesB5cxx11 acquire, align 8
  %2 = icmp eq i8 %1, 0
  br i1 %2, label %3, label %9, !prof !4

3:                                                ; preds = %0
  %4 = tail call i32 @__cxa_guard_acquire(ptr nonnull @_ZGVZN32pxrInternal_v0_24__pxrReserved__25ArGetRegisteredURISchemesB5cxx11EvE10uriSchemesB5cxx11) #15
  %.not = icmp eq i32 %4, 0
  br i1 %.not, label %9, label %5

5:                                                ; preds = %3
  invoke fastcc void @_ZN32pxrInternal_v0_24__pxrReserved__12_GLOBAL__N_112_GetResolverEv()
          to label %6 unwind label %10

6:                                                ; preds = %5
  invoke fastcc void @_ZNK32pxrInternal_v0_24__pxrReserved__12_GLOBAL__N_120_DispatchingResolver13GetURISchemesB5cxx11Ev()
          to label %7 unwind label %10

7:                                                ; preds = %6
  %8 = tail call i32 @__cxa_atexit(ptr nonnull @_ZNSt6vectorINSt7__cxx1112basic_stringIcSt11char_traitsIcESaIcEEESaIS5_EED2Ev, ptr nonnull @_ZZN32pxrInternal_v0_24__pxrReserved__25ArGetRegisteredURISchemesB5cxx11EvE10uriSchemesB5cxx11, ptr nonnull @__dso_handle) #15
  tail call void @__cxa_guard_release(ptr nonnull @_ZGVZN32pxrInternal_v0_24__pxrReserved__25ArGetRegisteredURISchemesB5cxx11EvE10uriSchemesB5cxx11) #15
  br label %9

9:                                                ; preds = %7, %3, %0
  ret ptr @_ZZN32pxrInternal_v0_24__pxrReserved__25ArGetRegisteredURISchemesB5cxx11EvE10uriSchemesB5cxx11

10:                                               ; preds = %5, %6
  %11 = landingpad { ptr, i32 }
          cleanup
  tail call void @__cxa_guard_abort(ptr nonnull @_ZGVZN32pxrInternal_v0_24__pxrReserved__25ArGetRegisteredURISchemesB5cxx11EvE10uriSchemesB5cxx11) #15
  resume { ptr, i32 } %11
}